target datalayout = "e-m:e-p270:32:32-p271:32:32-p272:64:64-i64:64-i128:128-f80:128-n8:16:32:64-S128"
target triple = "x86_64-pc-linux-gnu"

@.str = private unnamed_addr constant [4 x i8] c"all\00", align 1
@.str.1 = private unnamed_addr constant [6 x i8] c"batch\00", align 1
@.str.2 = private unnamed_addr constant [6 x i8] c"first\00", align 1
@.str.3 = private unnamed_addr constant [5 x i8] c"last\00", align 1
@.str.4 = private unnamed_addr constant [6 x i8] c"unset\00", align 1

; Function Attrs: nounwind uwtable
define dso_local ptr @x11_flags2str(i16 noundef zeroext %0) #0 {
  %2 = alloca ptr, align 8
  %3 = alloca i16, align 2
  store i16 %0, ptr %3, align 2
  %4 = load i16, ptr %3, align 2
  %5 = zext i16 %4 to i32
  %6 = and i32 %5, 1
  %7 = icmp ne i32 %6, 0
  br i1 %7, label %8, label %9

8:                                                ; preds = %1
  store ptr @.str, ptr %2, align 8
  br label %28

9:                                                ; preds = %1
  %10 = load i16, ptr %3, align 2
  %11 = zext i16 %10 to i32
  %12 = and i32 %11, 2
  %13 = icmp ne i32 %12, 0
  br i1 %13, label %14, label %15

14:                                               ; preds = %9
  store ptr @.str.1, ptr %2, align 8
  br label %28

15:                                               ; preds = %9
  %16 = load i16, ptr %3, align 2
  %17 = zext i16 %16 to i32
  %18 = and i32 %17, 4
  %19 = icmp ne i32 %18, 0
  br i1 %19, label %20, label %21

20:                                               ; preds = %15
  store ptr @.str.2, ptr %2, align 8
  br label %28

21:                                               ; preds = %15
  %22 = load i16, ptr %3, align 2
  %23 = zext i16 %22 to i32
  %24 = and i32 %23, 8
  %25 = icmp ne i32 %24, 0
  br i1 %25, label %26, label %27

26:                                               ; preds = %21
  store ptr @.str.3, ptr %2, align 8
  br label %28

27:                                               ; preds = %21
  store ptr @.str.4, ptr %2, align 8
  br label %28

28:                                               ; preds = %27, %26, %20, %14, %8
  %29 = load ptr, ptr %2, align 8
  ret ptr %29
}