; Function Attrs: mustprogress nofree norecurse nosync nounwind willreturn memory(none) uwtable
define dso_local noundef nonnull ptr @x11_flags2str(i16 noundef zeroext %0) local_unnamed_addr #3 {
  %2 = zext i16 %0 to i32
  %3 = and i32 %2, 1
  %.not = icmp eq i32 %3, 0
  br i1 %.not, label %4, label %10

4:                                                ; preds = %1
  %5 = and i32 %2, 2
  %.not4 = icmp eq i32 %5, 0
  br i1 %.not4, label %6, label %10

6:                                                ; preds = %4
  %7 = and i32 %2, 4
  %.not5 = icmp eq i32 %7, 0
  br i1 %.not5, label %8, label %10

8:                                                ; preds = %6
  %9 = and i32 %2, 8
  %.not6 = icmp eq i32 %9, 0
  %.str.4..str.3 = select i1 %.not6, ptr @.str.4, ptr @.str.3
  br label %10

10:                                               ; preds = %8, %6, %4, %1
  %.0 = phi ptr [ @.str, %1 ], [ @.str.1, %4 ], [ @.str.2, %6 ], [ %.str.4..str.3, %8 ]
  ret ptr %.0
}